target datalayout = "e-m:e-p270:32:32-p271:32:32-p272:64:64-i64:64-i128:128-f80:128-n8:16:32:64-S128"
target triple = "x86_64-pc-linux-gnu"

%"class.std::__cxx11::basic_string" = type { %"struct.std::__cxx11::basic_string<char>::_Alloc_hider", i64, %union.anon }
%"struct.std::__cxx11::basic_string<char>::_Alloc_hider" = type { ptr }
%union.anon = type { i64, [8 x i8] }
%"struct.Assimp::IFC::Schema_2x3::IfcColourRgb" = type { %"struct.Assimp::IFC::Schema_2x3::IfcColourSpecification.base", %"struct.Assimp::STEP::ObjectHelper.base.35", double, double, double, %"class.Assimp::STEP::Object" }
%"struct.Assimp::IFC::Schema_2x3::IfcColourSpecification.base" = type { %"struct.Assimp::STEP::ObjectHelper.base", %"struct.Assimp::STEP::Maybe" }
%"struct.Assimp::STEP::ObjectHelper.base" = type { ptr, %"class.std::bitset" }
%"class.std::bitset" = type { %"struct.std::_Base_bitset" }
%"struct.std::_Base_bitset" = type { i64 }
%"struct.Assimp::STEP::Maybe" = type <{ %"class.std::__cxx11::basic_string", i8, [7 x i8] }>
%"struct.Assimp::STEP::ObjectHelper.base.35" = type { ptr, %"class.std::bitset.34" }
%"class.std::bitset.34" = type { %"struct.std::_Base_bitset" }
%"class.Assimp::STEP::Object" = type { ptr, i64, ptr }
%class.aiColor4t = type { float, float, float, float }

; Function Attrs: mustprogress nounwind uwtable
define hidden void @_ZN6Assimp3IFC12ConvertColorER9aiColor4tIfERKNS0_10Schema_2x312IfcColourRgbE(ptr noundef nonnull align 4 dereferenceable(16) %0, ptr noundef nonnull align 8 dereferenceable(96) %1) #1 {
  %3 = alloca ptr, align 8
  %4 = alloca ptr, align 8
  store ptr %0, ptr %3, align 8
  store ptr %1, ptr %4, align 8
  %5 = load ptr, ptr %4, align 8
  %6 = getelementptr inbounds nuw %"struct.Assimp::IFC::Schema_2x3::IfcColourRgb", ptr %5, i32 0, i32 2
  %7 = load double, ptr %6, align 8
  %8 = fptrunc double %7 to float
  %9 = load ptr, ptr %3, align 8
  %10 = getelementptr inbounds nuw %class.aiColor4t, ptr %9, i32 0, i32 0
  store float %8, ptr %10, align 4
  %11 = load ptr, ptr %4, align 8
  %12 = getelementptr inbounds nuw %"struct.Assimp::IFC::Schema_2x3::IfcColourRgb", ptr %11, i32 0, i32 3
  %13 = load double, ptr %12, align 8
  %14 = fptrunc double %13 to float
  %15 = load ptr, ptr %3, align 8
  %16 = getelementptr inbounds nuw %class.aiColor4t, ptr %15, i32 0, i32 1
  store float %14, ptr %16, align 4
  %17 = load ptr, ptr %4, align 8
  %18 = getelementptr inbounds nuw %"struct.Assimp::IFC::Schema_2x3::IfcColourRgb", ptr %17, i32 0, i32 4
  %19 = load double, ptr %18, align 8
  %20 = fptrunc double %19 to float
  %21 = load ptr, ptr %3, align 8
  %22 = getelementptr inbounds nuw %class.aiColor4t, ptr %21, i32 0, i32 2
  store float %20, ptr %22, align 4
  %23 = load ptr, ptr %3, align 8
  %24 = getelementptr inbounds nuw %class.aiColor4t, ptr %23, i32 0, i32 3
  store float 1.000000e+00, ptr %24, align 4
  ret void
}