; Function Attrs: mustprogress nofree norecurse nosync nounwind willreturn memory(argmem: readwrite) uwtable
define hidden void @_ZN6Assimp3IFC12ConvertColorER9aiColor4tIfERKNS0_10Schema_2x312IfcColourRgbE(ptr noundef nonnull writeonly align 4 captures(none) dereferenceable(16) initializes((0, 16)) %0, ptr noundef nonnull readonly align 8 captures(none) dereferenceable(96) %1) local_unnamed_addr #5 {
  %3 = getelementptr inbounds nuw i8, ptr %1, i64 72
  %4 = load double, ptr %3, align 8
  %5 = fptrunc double %4 to float
  store float %5, ptr %0, align 4
  %6 = getelementptr inbounds nuw i8, ptr %1, i64 80
  %7 = load double, ptr %6, align 8
  %8 = fptrunc double %7 to float
  %9 = getelementptr inbounds nuw i8, ptr %0, i64 4
  store float %8, ptr %9, align 4
  %10 = getelementptr inbounds nuw i8, ptr %1, i64 88
  %11 = load double, ptr %10, align 8
  %12 = fptrunc double %11 to float
  %13 = getelementptr inbounds nuw i8, ptr %0, i64 8
  store float %12, ptr %13, align 4
  %14 = getelementptr inbounds nuw i8, ptr %0, i64 12
  store float 1.000000e+00, ptr %14, align 4
  ret void
}